; Function Attrs: nounwind uwtable
define hidden nonnull ptr @php_dom_instantiate_object_helper(ptr noundef %0, ptr noundef %1, ptr noundef %2, ptr noundef readonly %3) local_unnamed_addr #1 {
  %5 = tail call i32 @object_init_ex(ptr noundef %0, ptr noundef %1) #16
  %6 = load ptr, ptr %0, align 8
  %7 = getelementptr inbounds i8, ptr %6, i64 -24
  %8 = getelementptr inbounds i8, ptr %2, i64 64
  %9 = load ptr, ptr %8, align 8
  %.not = icmp eq ptr %9, null
  br i1 %.not, label %18, label %10

10:                                               ; preds = %4
  %.not13 = icmp eq ptr %3, null
  br i1 %.not13, label %15, label %11

11:                                               ; preds = %10
  %12 = getelementptr inbounds i8, ptr %3, i64 8
  %13 = load ptr, ptr %12, align 8
  %14 = getelementptr inbounds i8, ptr %6, i64 -16
  store ptr %13, ptr %14, align 8
  %.pre = load ptr, ptr %8, align 8
  br label %15

15:                                               ; preds = %11, %10
  %16 = phi ptr [ %.pre, %11 ], [ %9, %10 ]
  %17 = tail call i32 @php_libxml_increment_doc_ref(ptr noundef nonnull %7, ptr noundef %16) #16
  br label %18

18:                                               ; preds = %15, %4
  %19 = tail call i32 @php_libxml_increment_node_ptr(ptr noundef nonnull %7, ptr noundef nonnull %2, ptr noundef nonnull %7) #16
  ret ptr %7
}